target datalayout = "e-m:e-p270:32:32-p271:32:32-p272:64:64-i64:64-i128:128-f80:128-n8:16:32:64-S128"
target triple = "x86_64-unknown-linux-gnu"

%class.model = type { %class.model_core, %class.ptr_vector.5, %class.obj_map.7, %class.model_evaluator, i8, i8, %class.plugin_manager }
%class.model_core = type { ptr, ptr, i32, [4 x i8], %class.obj_map, %class.obj_map.0, %class.ptr_vector, %class.ptr_vector, %class.ptr_vector }
%class.obj_map = type { %class.core_hashtable }
%class.core_hashtable = type <{ ptr, i32, i32, i32, [4 x i8] }>
%class.obj_map.0 = type { %class.core_hashtable.1 }
%class.core_hashtable.1 = type <{ ptr, i32, i32, i32, [4 x i8] }>
%class.ptr_vector = type { %class.vector }
%class.vector = type { ptr }
%class.ptr_vector.5 = type { %class.vector.6 }
%class.vector.6 = type { ptr }
%class.obj_map.7 = type { %class.core_hashtable.8 }
%class.core_hashtable.8 = type <{ ptr, i32, i32, i32, [4 x i8] }>
%class.model_evaluator = type { ptr }
%class.plugin_manager = type { %class.ptr_vector.12, %class.ptr_vector.12 }
%class.ptr_vector.12 = type { %class.vector.13 }
%class.vector.13 = type { ptr }
%"struct.obj_map<sort, ptr_vector<expr> *>::key_data" = type { ptr, ptr }
%"class.obj_map<sort, ptr_vector<expr> *>::obj_map_entry" = type { %"struct.obj_map<sort, ptr_vector<expr> *>::key_data" }
%class.ast = type { i32, i24, i32, i32 }

; Function Attrs: mustprogress nounwind uwtable
define linkonce_odr hidden noundef zeroext i1 @_ZNK7obj_mapI4sortP10ptr_vectorI4exprEE8key_dataeqERKS6_(ptr noundef nonnull align 8 dereferenceable(16) %this, ptr noundef nonnull align 8 dereferenceable(16) %other) #5 comdat align 2 {
entry:
  %this.addr = alloca ptr, align 8
  %other.addr = alloca ptr, align 8
  store ptr %this, ptr %this.addr, align 8
  store ptr %other, ptr %other.addr, align 8
  %this1 = load ptr, ptr %this.addr, align 8
  %m_key = getelementptr inbounds %"struct.obj_map<sort, ptr_vector<expr> *>::key_data", ptr %this1, i32 0, i32 0
  %0 = load ptr, ptr %m_key, align 8
  %1 = load ptr, ptr %other.addr, align 8
  %m_key2 = getelementptr inbounds %"struct.obj_map<sort, ptr_vector<expr> *>::key_data", ptr %1, i32 0, i32 0
  %2 = load ptr, ptr %m_key2, align 8
  %cmp = icmp eq ptr %0, %2
  ret i1 %cmp
}

; Function Attrs: mustprogress nounwind uwtable
define linkonce_odr hidden noundef i32 @_ZNK3ast4hashEv(ptr noundef nonnull align 4 dereferenceable(16) %this) #5 comdat align 2 {
entry:
  %this.addr = alloca ptr, align 8
  store ptr %this, ptr %this.addr, align 8
  %this1 = load ptr, ptr %this.addr, align 8
  %m_hash = getelementptr inbounds %class.ast, ptr %this1, i32 0, i32 3
  %0 = load i32, ptr %m_hash, align 4
  ret i32 %0
}

; Function Attrs: mustprogress uwtable
define linkonce_odr hidden noundef zeroext i1 @_ZNK10default_eqIN7obj_mapI4sortP10ptr_vectorI4exprEE8key_dataEEclERKS7_SA_(ptr noundef nonnull align 1 dereferenceable(1) %this, ptr noundef nonnull align 8 dereferenceable(16) %e1, ptr noundef nonnull align 8 dereferenceable(16) %e2) #4 comdat align 2 {
entry:
  %this.addr = alloca ptr, align 8
  %e1.addr = alloca ptr, align 8
  %e2.addr = alloca ptr, align 8
  store ptr %this, ptr %this.addr, align 8
  store ptr %e1, ptr %e1.addr, align 8
  store ptr %e2, ptr %e2.addr, align 8
  %0 = load ptr, ptr %e1.addr, align 8
  %1 = load ptr, ptr %e2.addr, align 8
  %call = call noundef zeroext i1 @_ZNK7obj_mapI4sortP10ptr_vectorI4exprEE8key_dataeqERKS6_(ptr noundef nonnull align 8 dereferenceable(16) %0, ptr noundef nonnull align 8 dereferenceable(16) %1)
  ret i1 %call
}

; Function Attrs: mustprogress nounwind uwtable
define linkonce_odr hidden noundef i32 @_ZNK7obj_mapI4sortP10ptr_vectorI4exprEE8key_data4hashEv(ptr noundef nonnull align 8 dereferenceable(16) %this) #5 comdat align 2 {
entry:
  %this.addr = alloca ptr, align 8
  store ptr %this, ptr %this.addr, align 8
  %this1 = load ptr, ptr %this.addr, align 8
  %m_key = getelementptr inbounds %"struct.obj_map<sort, ptr_vector<expr> *>::key_data", ptr %this1, i32 0, i32 0
  %0 = load ptr, ptr %m_key, align 8
  %call = call noundef i32 @_ZNK3ast4hashEv(ptr noundef nonnull align 4 dereferenceable(16) %0)
  ret i32 %call
}

; Function Attrs: mustprogress uwtable
define linkonce_odr hidden noundef i32 @_ZNK8obj_hashIN7obj_mapI4sortP10ptr_vectorI4exprEE8key_dataEEclERKS7_(ptr noundef nonnull align 1 dereferenceable(1) %this, ptr noundef nonnull align 8 dereferenceable(16) %e) #4 comdat align 2 {
entry:
  %this.addr = alloca ptr, align 8
  %e.addr = alloca ptr, align 8
  store ptr %this, ptr %this.addr, align 8
  store ptr %e, ptr %e.addr, align 8
  %0 = load ptr, ptr %e.addr, align 8
  %call = call noundef i32 @_ZNK7obj_mapI4sortP10ptr_vectorI4exprEE8key_data4hashEv(ptr noundef nonnull align 8 dereferenceable(16) %0)
  ret i32 %call
}

; Function Attrs: mustprogress nounwind uwtable
define linkonce_odr hidden noundef zeroext i1 @_ZNK7obj_mapI4sortP10ptr_vectorI4exprEE13obj_map_entry7is_freeEv(ptr noundef nonnull align 8 dereferenceable(16) %this) #5 comdat align 2 {
entry:
  %this.addr = alloca ptr, align 8
  store ptr %this, ptr %this.addr, align 8
  %this1 = load ptr, ptr %this.addr, align 8
  %m_data = getelementptr inbounds %"class.obj_map<sort, ptr_vector<expr> *>::obj_map_entry", ptr %this1, i32 0, i32 0
  %m_key = getelementptr inbounds %"struct.obj_map<sort, ptr_vector<expr> *>::key_data", ptr %m_data, i32 0, i32 0
  %0 = load ptr, ptr %m_key, align 8
  %cmp = icmp eq ptr %0, null
  ret i1 %cmp
}

; Function Attrs: mustprogress uwtable
define linkonce_odr hidden noundef zeroext i1 @_ZNK14core_hashtableIN7obj_mapI4sortP10ptr_vectorI4exprEE13obj_map_entryE8obj_hashINS6_8key_dataEE10default_eqIS9_EE6equalsERKS9_SF_(ptr noundef nonnull align 8 dereferenceable(20) %this, ptr noundef nonnull align 8 dereferenceable(16) %e1, ptr noundef nonnull align 8 dereferenceable(16) %e2) #4 comdat align 2 {
entry:
  %this.addr = alloca ptr, align 8
  %e1.addr = alloca ptr, align 8
  %e2.addr = alloca ptr, align 8
  store ptr %this, ptr %this.addr, align 8
  store ptr %e1, ptr %e1.addr, align 8
  store ptr %e2, ptr %e2.addr, align 8
  %this1 = load ptr, ptr %this.addr, align 8
  %0 = load ptr, ptr %e1.addr, align 8
  %1 = load ptr, ptr %e2.addr, align 8
  %call = call noundef zeroext i1 @_ZNK10default_eqIN7obj_mapI4sortP10ptr_vectorI4exprEE8key_dataEEclERKS7_SA_(ptr noundef nonnull align 1 dereferenceable(1) %this1, ptr noundef nonnull align 8 dereferenceable(16) %0, ptr noundef nonnull align 8 dereferenceable(16) %1)
  ret i1 %call
}

; Function Attrs: mustprogress nounwind uwtable
define linkonce_odr hidden noundef i32 @_ZNK7obj_mapI4sortP10ptr_vectorI4exprEE13obj_map_entry8get_hashEv(ptr noundef nonnull align 8 dereferenceable(16) %this) #5 comdat align 2 {
entry:
  %this.addr = alloca ptr, align 8
  store ptr %this, ptr %this.addr, align 8
  %this1 = load ptr, ptr %this.addr, align 8
  %m_data = getelementptr inbounds %"class.obj_map<sort, ptr_vector<expr> *>::obj_map_entry", ptr %this1, i32 0, i32 0
  %call = call noundef i32 @_ZNK7obj_mapI4sortP10ptr_vectorI4exprEE8key_data4hashEv(ptr noundef nonnull align 8 dereferenceable(16) %m_data)
  ret i32 %call
}

; Function Attrs: mustprogress nounwind uwtable
define linkonce_odr hidden noundef zeroext i1 @_ZNK7obj_mapI4sortP10ptr_vectorI4exprEE13obj_map_entry7is_usedEv(ptr noundef nonnull align 8 dereferenceable(16) %this) #5 comdat align 2 {
entry:
  %this.addr = alloca ptr, align 8
  store ptr %this, ptr %this.addr, align 8
  %this1 = load ptr, ptr %this.addr, align 8
  %m_data = getelementptr inbounds %"class.obj_map<sort, ptr_vector<expr> *>::obj_map_entry", ptr %this1, i32 0, i32 0
  %m_key = getelementptr inbounds %"struct.obj_map<sort, ptr_vector<expr> *>::key_data", ptr %m_data, i32 0, i32 0
  %0 = load ptr, ptr %m_key, align 8
  %cmp = icmp ne ptr %0, null
  br i1 %cmp, label %land.rhs, label %land.end

land.rhs:                                         ; preds = %entry
  %m_data2 = getelementptr inbounds %"class.obj_map<sort, ptr_vector<expr> *>::obj_map_entry", ptr %this1, i32 0, i32 0
  %m_key3 = getelementptr inbounds %"struct.obj_map<sort, ptr_vector<expr> *>::key_data", ptr %m_data2, i32 0, i32 0
  %1 = load ptr, ptr %m_key3, align 8
  %cmp4 = icmp ne ptr %1, inttoptr (i64 1 to ptr)
  br label %land.end

land.end:                                         ; preds = %land.rhs, %entry
  %2 = phi i1 [ false, %entry ], [ %cmp4, %land.rhs ]
  ret i1 %2
}

; Function Attrs: mustprogress uwtable
define linkonce_odr hidden noundef i32 @_ZNK14core_hashtableIN7obj_mapI4sortP10ptr_vectorI4exprEE13obj_map_entryE8obj_hashINS6_8key_dataEE10default_eqIS9_EE8get_hashERKS9_(ptr noundef nonnull align 8 dereferenceable(20) %this, ptr noundef nonnull align 8 dereferenceable(16) %e) #4 comdat align 2 {
entry:
  %this.addr = alloca ptr, align 8
  %e.addr = alloca ptr, align 8
  store ptr %this, ptr %this.addr, align 8
  store ptr %e, ptr %e.addr, align 8
  %this1 = load ptr, ptr %this.addr, align 8
  %0 = load ptr, ptr %e.addr, align 8
  %call = call noundef i32 @_ZNK8obj_hashIN7obj_mapI4sortP10ptr_vectorI4exprEE8key_dataEEclERKS7_(ptr noundef nonnull align 1 dereferenceable(1) %this1, ptr noundef nonnull align 8 dereferenceable(16) %0)
  ret i32 %call
}

; Function Attrs: mustprogress uwtable
define linkonce_odr hidden noundef ptr @_ZNK14core_hashtableIN7obj_mapI4sortP10ptr_vectorI4exprEE13obj_map_entryE8obj_hashINS6_8key_dataEE10default_eqIS9_EE9find_coreERKS9_(ptr noundef nonnull align 8 dereferenceable(20) %this, ptr noundef nonnull align 8 dereferenceable(16) %e) #4 comdat align 2 {
entry:
  %retval = alloca ptr, align 8
  %this.addr = alloca ptr, align 8
  %e.addr = alloca ptr, align 8
  %hash = alloca i32, align 4
  %mask = alloca i32, align 4
  %idx = alloca i32, align 4
  %begin = alloca ptr, align 8
  %end = alloca ptr, align 8
  %curr = alloca ptr, align 8
  store ptr %this, ptr %this.addr, align 8
  store ptr %e, ptr %e.addr, align 8
  %this1 = load ptr, ptr %this.addr, align 8
  %0 = load ptr, ptr %e.addr, align 8
  %call = call noundef i32 @_ZNK14core_hashtableIN7obj_mapI4sortP10ptr_vectorI4exprEE13obj_map_entryE8obj_hashINS6_8key_dataEE10default_eqIS9_EE8get_hashERKS9_(ptr noundef nonnull align 8 dereferenceable(20) %this1, ptr noundef nonnull align 8 dereferenceable(16) %0)
  store i32 %call, ptr %hash, align 4
  %m_capacity = getelementptr inbounds %class.core_hashtable.8, ptr %this1, i32 0, i32 1
  %1 = load i32, ptr %m_capacity, align 8
  %sub = sub i32 %1, 1
  store i32 %sub, ptr %mask, align 4
  %2 = load i32, ptr %hash, align 4
  %3 = load i32, ptr %mask, align 4
  %and = and i32 %2, %3
  store i32 %and, ptr %idx, align 4
  %m_table = getelementptr inbounds %class.core_hashtable.8, ptr %this1, i32 0, i32 0
  %4 = load ptr, ptr %m_table, align 8
  %5 = load i32, ptr %idx, align 4
  %idx.ext = zext i32 %5 to i64
  %add.ptr = getelementptr inbounds %"class.obj_map<sort, ptr_vector<expr> *>::obj_map_entry", ptr %4, i64 %idx.ext
  store ptr %add.ptr, ptr %begin, align 8
  %m_table2 = getelementptr inbounds %class.core_hashtable.8, ptr %this1, i32 0, i32 0
  %6 = load ptr, ptr %m_table2, align 8
  %m_capacity3 = getelementptr inbounds %class.core_hashtable.8, ptr %this1, i32 0, i32 1
  %7 = load i32, ptr %m_capacity3, align 8
  %idx.ext4 = zext i32 %7 to i64
  %add.ptr5 = getelementptr inbounds %"class.obj_map<sort, ptr_vector<expr> *>::obj_map_entry", ptr %6, i64 %idx.ext4
  store ptr %add.ptr5, ptr %end, align 8
  %8 = load ptr, ptr %begin, align 8
  store ptr %8, ptr %curr, align 8
  br label %for.cond

for.cond:                                         ; preds = %for.inc, %entry
  %9 = load ptr, ptr %curr, align 8
  %10 = load ptr, ptr %end, align 8
  %cmp = icmp ne ptr %9, %10
  br i1 %cmp, label %for.body, label %for.end

for.body:                                         ; preds = %for.cond
  %11 = load ptr, ptr %curr, align 8
  %call6 = call noundef zeroext i1 @_ZNK7obj_mapI4sortP10ptr_vectorI4exprEE13obj_map_entry7is_usedEv(ptr noundef nonnull align 8 dereferenceable(16) %11)
  br i1 %call6, label %if.then, label %if.else

if.then:                                          ; preds = %for.body
  %12 = load ptr, ptr %curr, align 8
  %call7 = call noundef i32 @_ZNK7obj_mapI4sortP10ptr_vectorI4exprEE13obj_map_entry8get_hashEv(ptr noundef nonnull align 8 dereferenceable(16) %12)
  %13 = load i32, ptr %hash, align 4
  %cmp8 = icmp eq i32 %call7, %13
  br i1 %cmp8, label %land.lhs.true, label %if.end

land.lhs.true:                                    ; preds = %if.then
  %14 = load ptr, ptr %curr, align 8
  %call9 = call noundef nonnull align 8 dereferenceable(16) ptr @_ZN7obj_mapI4sortP10ptr_vectorI4exprEE13obj_map_entry8get_dataEv(ptr noundef nonnull align 8 dereferenceable(16) %14)
  %15 = load ptr, ptr %e.addr, align 8
  %call10 = call noundef zeroext i1 @_ZNK14core_hashtableIN7obj_mapI4sortP10ptr_vectorI4exprEE13obj_map_entryE8obj_hashINS6_8key_dataEE10default_eqIS9_EE6equalsERKS9_SF_(ptr noundef nonnull align 8 dereferenceable(20) %this1, ptr noundef nonnull align 8 dereferenceable(16) %call9, ptr noundef nonnull align 8 dereferenceable(16) %15)
  br i1 %call10, label %if.then11, label %if.end

if.then11:                                        ; preds = %land.lhs.true
  %16 = load ptr, ptr %curr, align 8
  store ptr %16, ptr %retval, align 8
  br label %return

if.end:                                           ; preds = %land.lhs.true, %if.then
  br label %if.end16

if.else:                                          ; preds = %for.body
  %17 = load ptr, ptr %curr, align 8
  %call12 = call noundef zeroext i1 @_ZNK7obj_mapI4sortP10ptr_vectorI4exprEE13obj_map_entry7is_freeEv(ptr noundef nonnull align 8 dereferenceable(16) %17)
  br i1 %call12, label %if.then13, label %if.else14

if.then13:                                        ; preds = %if.else
  store ptr null, ptr %retval, align 8
  br label %return

if.else14:                                        ; preds = %if.else
  br label %if.end15

if.end15:                                         ; preds = %if.else14
  br label %if.end16

if.end16:                                         ; preds = %if.end15, %if.end
  br label %for.inc

for.inc:                                          ; preds = %if.end16
  %18 = load ptr, ptr %curr, align 8
  %incdec.ptr = getelementptr inbounds %"class.obj_map<sort, ptr_vector<expr> *>::obj_map_entry", ptr %18, i32 1
  store ptr %incdec.ptr, ptr %curr, align 8
  br label %for.cond, !llvm.loop !75

for.end:                                          ; preds = %for.cond
  %m_table17 = getelementptr inbounds %class.core_hashtable.8, ptr %this1, i32 0, i32 0
  %19 = load ptr, ptr %m_table17, align 8
  store ptr %19, ptr %curr, align 8
  br label %for.cond18

for.cond18:                                       ; preds = %for.inc36, %for.end
  %20 = load ptr, ptr %curr, align 8
  %21 = load ptr, ptr %begin, align 8
  %cmp19 = icmp ne ptr %20, %21
  br i1 %cmp19, label %for.body20, label %for.end38

for.body20:                                       ; preds = %for.cond18
  %22 = load ptr, ptr %curr, align 8
  %call21 = call noundef zeroext i1 @_ZNK7obj_mapI4sortP10ptr_vectorI4exprEE13obj_map_entry7is_usedEv(ptr noundef nonnull align 8 dereferenceable(16) %22)
  br i1 %call21, label %if.then22, label %if.else30

if.then22:                                        ; preds = %for.body20
  %23 = load ptr, ptr %curr, align 8
  %call23 = call noundef i32 @_ZNK7obj_mapI4sortP10ptr_vectorI4exprEE13obj_map_entry8get_hashEv(ptr noundef nonnull align 8 dereferenceable(16) %23)
  %24 = load i32, ptr %hash, align 4
  %cmp24 = icmp eq i32 %call23, %24
  br i1 %cmp24, label %land.lhs.true25, label %if.end29

land.lhs.true25:                                  ; preds = %if.then22
  %25 = load ptr, ptr %curr, align 8
  %call26 = call noundef nonnull align 8 dereferenceable(16) ptr @_ZN7obj_mapI4sortP10ptr_vectorI4exprEE13obj_map_entry8get_dataEv(ptr noundef nonnull align 8 dereferenceable(16) %25)
  %26 = load ptr, ptr %e.addr, align 8
  %call27 = call noundef zeroext i1 @_ZNK14core_hashtableIN7obj_mapI4sortP10ptr_vectorI4exprEE13obj_map_entryE8obj_hashINS6_8key_dataEE10default_eqIS9_EE6equalsERKS9_SF_(ptr noundef nonnull align 8 dereferenceable(20) %this1, ptr noundef nonnull align 8 dereferenceable(16) %call26, ptr noundef nonnull align 8 dereferenceable(16) %26)
  br i1 %call27, label %if.then28, label %if.end29

if.then28:                                        ; preds = %land.lhs.true25
  %27 = load ptr, ptr %curr, align 8
  store ptr %27, ptr %retval, align 8
  br label %return

if.end29:                                         ; preds = %land.lhs.true25, %if.then22
  br label %if.end35

if.else30:                                        ; preds = %for.body20
  %28 = load ptr, ptr %curr, align 8
  %call31 = call noundef zeroext i1 @_ZNK7obj_mapI4sortP10ptr_vectorI4exprEE13obj_map_entry7is_freeEv(ptr noundef nonnull align 8 dereferenceable(16) %28)
  br i1 %call31, label %if.then32, label %if.else33

if.then32:                                        ; preds = %if.else30
  store ptr null, ptr %retval, align 8
  br label %return

if.else33:                                        ; preds = %if.else30
  br label %if.end34

if.end34:                                         ; preds = %if.else33
  br label %if.end35

if.end35:                                         ; preds = %if.end34, %if.end29
  br label %for.inc36

for.inc36:                                        ; preds = %if.end35
  %29 = load ptr, ptr %curr, align 8
  %incdec.ptr37 = getelementptr inbounds %"class.obj_map<sort, ptr_vector<expr> *>::obj_map_entry", ptr %29, i32 1
  store ptr %incdec.ptr37, ptr %curr, align 8
  br label %for.cond18, !llvm.loop !76

for.end38:                                        ; preds = %for.cond18
  store ptr null, ptr %retval, align 8
  br label %return

return:                                           ; preds = %for.end38, %if.then32, %if.then28, %if.then13, %if.then11
  %30 = load ptr, ptr %retval, align 8
  ret ptr %30
}

; Function Attrs: mustprogress nounwind uwtable
define linkonce_odr hidden void @_ZN7obj_mapI4sortP10ptr_vectorI4exprEE8key_dataC2EPS0_(ptr noundef nonnull align 8 dereferenceable(16) %this, ptr noundef %k) unnamed_addr #5 comdat align 2 {
entry:
  %this.addr = alloca ptr, align 8
  %k.addr = alloca ptr, align 8
  store ptr %this, ptr %this.addr, align 8
  store ptr %k, ptr %k.addr, align 8
  %this1 = load ptr, ptr %this.addr, align 8
  %m_key = getelementptr inbounds %"struct.obj_map<sort, ptr_vector<expr> *>::key_data", ptr %this1, i32 0, i32 0
  %0 = load ptr, ptr %k.addr, align 8
  store ptr %0, ptr %m_key, align 8
  %m_value = getelementptr inbounds %"struct.obj_map<sort, ptr_vector<expr> *>::key_data", ptr %this1, i32 0, i32 1
  store ptr null, ptr %m_value, align 8
  ret void
}

; Function Attrs: mustprogress nounwind uwtable
define linkonce_odr hidden noundef nonnull align 8 dereferenceable(16) ptr @_ZN7obj_mapI4sortP10ptr_vectorI4exprEE13obj_map_entry8get_dataEv(ptr noundef nonnull align 8 dereferenceable(16) %this) #5 comdat align 2 {
entry:
  %this.addr = alloca ptr, align 8
  store ptr %this, ptr %this.addr, align 8
  %this1 = load ptr, ptr %this.addr, align 8
  %m_data = getelementptr inbounds %"class.obj_map<sort, ptr_vector<expr> *>::obj_map_entry", ptr %this1, i32 0, i32 0
  ret ptr %m_data
}

; Function Attrs: mustprogress uwtable
define linkonce_odr hidden noundef ptr @_ZNK7obj_mapI4sortP10ptr_vectorI4exprEE9find_coreEPS0_(ptr noundef nonnull align 8 dereferenceable(24) %this, ptr noundef %k) #4 comdat align 2 {
entry:
  %this.addr = alloca ptr, align 8
  %k.addr = alloca ptr, align 8
  %ref.tmp = alloca %"struct.obj_map<sort, ptr_vector<expr> *>::key_data", align 8
  store ptr %this, ptr %this.addr, align 8
  store ptr %k, ptr %k.addr, align 8
  %this1 = load ptr, ptr %this.addr, align 8
  %m_table = getelementptr inbounds %class.obj_map.7, ptr %this1, i32 0, i32 0
  %0 = load ptr, ptr %k.addr, align 8
  call void @_ZN7obj_mapI4sortP10ptr_vectorI4exprEE8key_dataC2EPS0_(ptr noundef nonnull align 8 dereferenceable(16) %ref.tmp, ptr noundef %0)
  %call = call noundef ptr @_ZNK14core_hashtableIN7obj_mapI4sortP10ptr_vectorI4exprEE13obj_map_entryE8obj_hashINS6_8key_dataEE10default_eqIS9_EE9find_coreERKS9_(ptr noundef nonnull align 8 dereferenceable(20) %m_table, ptr noundef nonnull align 8 dereferenceable(16) %ref.tmp)
  ret ptr %call
}

; Function Attrs: mustprogress uwtable
define linkonce_odr hidden noundef zeroext i1 @_ZNK7obj_mapI4sortP10ptr_vectorI4exprEE4findEPS0_RS4_(ptr noundef nonnull align 8 dereferenceable(24) %this, ptr noundef %k, ptr noundef nonnull align 8 dereferenceable(8) %v) #4 comdat align 2 {
entry:
  %this.addr = alloca ptr, align 8
  %k.addr = alloca ptr, align 8
  %v.addr = alloca ptr, align 8
  %e = alloca ptr, align 8
  store ptr %this, ptr %this.addr, align 8
  store ptr %k, ptr %k.addr, align 8
  store ptr %v, ptr %v.addr, align 8
  %this1 = load ptr, ptr %this.addr, align 8
  %0 = load ptr, ptr %k.addr, align 8
  %call = call noundef ptr @_ZNK7obj_mapI4sortP10ptr_vectorI4exprEE9find_coreEPS0_(ptr noundef nonnull align 8 dereferenceable(24) %this1, ptr noundef %0)
  store ptr %call, ptr %e, align 8
  %1 = load ptr, ptr %e, align 8
  %tobool = icmp ne ptr %1, null
  br i1 %tobool, label %if.then, label %if.end

if.then:                                          ; preds = %entry
  %2 = load ptr, ptr %e, align 8
  %call2 = call noundef nonnull align 8 dereferenceable(16) ptr @_ZN7obj_mapI4sortP10ptr_vectorI4exprEE13obj_map_entry8get_dataEv(ptr noundef nonnull align 8 dereferenceable(16) %2)
  %m_value = getelementptr inbounds %"struct.obj_map<sort, ptr_vector<expr> *>::key_data", ptr %call2, i32 0, i32 1
  %3 = load ptr, ptr %m_value, align 8
  %4 = load ptr, ptr %v.addr, align 8
  store ptr %3, ptr %4, align 8
  br label %if.end

if.end:                                           ; preds = %if.then, %entry
  %5 = load ptr, ptr %e, align 8
  %cmp = icmp ne ptr null, %5
  ret i1 %cmp
}

; Function Attrs: mustprogress uwtable
define hidden noundef zeroext i1 @_ZNK5model22has_uninterpreted_sortEP4sort(ptr noundef nonnull align 8 dereferenceable(160) %this, ptr noundef %s) #4 align 2 {
entry:
  %this.addr = alloca ptr, align 8
  %s.addr = alloca ptr, align 8
  %u = alloca ptr, align 8
  store ptr %this, ptr %this.addr, align 8
  store ptr %s, ptr %s.addr, align 8
  %this1 = load ptr, ptr %this.addr, align 8
  store ptr null, ptr %u, align 8
  %m_usort2universe = getelementptr inbounds %class.model, ptr %this1, i32 0, i32 2
  %0 = load ptr, ptr %s.addr, align 8
  %call = call noundef zeroext i1 @_ZNK7obj_mapI4sortP10ptr_vectorI4exprEE4findEPS0_RS4_(ptr noundef nonnull align 8 dereferenceable(24) %m_usort2universe, ptr noundef %0, ptr noundef nonnull align 8 dereferenceable(8) %u)
  %1 = load ptr, ptr %u, align 8
  %cmp = icmp ne ptr %1, null
  ret i1 %cmp
}